; Function Attrs: nounwind uwtable
define internal void @characterDataHandler(ptr noundef captures(none) %0, ptr noundef readonly captures(none) %1, i32 noundef %2) #0 {
  %4 = sext i32 %2 to i64
  %5 = getelementptr inbounds nuw i8, ptr %0, i64 96
  %6 = load i8, ptr %5, align 8, !tbaa !54, !range !56, !noundef !57
  %7 = trunc nuw i8 %6 to i1
  br i1 %7, label %8, label %agxbput_n.exit

8:                                                ; preds = %3
  %9 = getelementptr inbounds nuw i8, ptr %0, i64 108
  %10 = load i8, ptr %9, align 4, !tbaa !55, !range !56, !noundef !57
  %11 = trunc nuw i8 %10 to i1
  %12 = icmp eq i32 %2, 0
  br i1 %11, label %13, label %40

13:                                               ; preds = %8
  %14 = getelementptr inbounds nuw i8, ptr %0, i64 64
  br i1 %12, label %agxbput_n.exit, label %15

15:                                               ; preds = %13
  %16 = getelementptr i8, ptr %0, i64 95
  %.val.i.i = load i8, ptr %16, align 1, !tbaa !33
  %.not.i.i = icmp eq i8 %.val.i.i, -1
  br i1 %.not.i.i, label %18, label %agxbsizeof.exit.i

agxbsizeof.exit.i:                                ; preds = %15
  %17 = zext i8 %.val.i.i to i64
  br label %agxblen.exit.i

18:                                               ; preds = %15
  %19 = getelementptr inbounds nuw i8, ptr %0, i64 80
  %20 = load i64, ptr %19, align 8, !tbaa !33
  %21 = getelementptr inbounds nuw i8, ptr %0, i64 72
  %22 = load i64, ptr %21, align 8, !tbaa !33
  br label %agxblen.exit.i

agxblen.exit.i:                                   ; preds = %18, %agxbsizeof.exit.i
  %.0.i30.i = phi i64 [ 31, %agxbsizeof.exit.i ], [ %20, %18 ]
  %.0.i24.i = phi i64 [ %17, %agxbsizeof.exit.i ], [ %22, %18 ]
  %23 = sub i64 %.0.i30.i, %.0.i24.i
  %24 = icmp ult i64 %23, %4
  br i1 %24, label %25, label %26

25:                                               ; preds = %agxblen.exit.i
  tail call fastcc void @agxbmore(ptr noundef nonnull %14, i64 noundef %4)
  %.val.i25.pre.i = load i8, ptr %16, align 1, !tbaa !33
  br label %26

26:                                               ; preds = %25, %agxblen.exit.i
  %.val.i25.i = phi i8 [ %.val.i25.pre.i, %25 ], [ %.val.i.i, %agxblen.exit.i ]
  %.not.i26.i = icmp eq i8 %.val.i25.i, -1
  br i1 %.not.i26.i, label %33, label %27

27:                                               ; preds = %26
  %28 = zext i8 %.val.i25.i to i64
  %29 = getelementptr inbounds nuw [31 x i8], ptr %14, i64 0, i64 %28
  tail call void @llvm.memcpy.p0.p0.i64(ptr nonnull align 1 %29, ptr readonly align 1 %1, i64 %4, i1 false)
  %30 = trunc i32 %2 to i8
  %31 = load i8, ptr %16, align 1, !tbaa !33
  %32 = add i8 %31, %30
  store i8 %32, ptr %16, align 1, !tbaa !33
  br label %agxbput_n.exit

33:                                               ; preds = %26
  %34 = getelementptr inbounds nuw i8, ptr %0, i64 72
  %35 = load i64, ptr %34, align 8, !tbaa !33
  %36 = load ptr, ptr %14, align 8, !tbaa !33
  %37 = getelementptr inbounds nuw i8, ptr %36, i64 %35
  tail call void @llvm.memcpy.p0.p0.i64(ptr align 1 %37, ptr readonly align 1 %1, i64 %4, i1 false)
  %38 = load i64, ptr %34, align 8, !tbaa !33
  %39 = add i64 %38, %4
  store i64 %39, ptr %34, align 8, !tbaa !33
  br label %agxbput_n.exit

40:                                               ; preds = %8
  %41 = getelementptr inbounds nuw i8, ptr %0, i64 32
  br i1 %12, label %agxbput_n.exit, label %42

42:                                               ; preds = %40
  %43 = getelementptr i8, ptr %0, i64 63
  %.val.i.i9 = load i8, ptr %43, align 1, !tbaa !33
  %.not.i.i10 = icmp eq i8 %.val.i.i9, -1
  br i1 %.not.i.i10, label %45, label %agxbsizeof.exit.i11

agxbsizeof.exit.i11:                              ; preds = %42
  %44 = zext i8 %.val.i.i9 to i64
  br label %agxblen.exit.i12

45:                                               ; preds = %42
  %46 = getelementptr inbounds nuw i8, ptr %0, i64 48
  %47 = load i64, ptr %46, align 8, !tbaa !33
  %48 = getelementptr inbounds nuw i8, ptr %0, i64 40
  %49 = load i64, ptr %48, align 8, !tbaa !33
  br label %agxblen.exit.i12

agxblen.exit.i12:                                 ; preds = %45, %agxbsizeof.exit.i11
  %.0.i30.i13 = phi i64 [ 31, %agxbsizeof.exit.i11 ], [ %47, %45 ]
  %.0.i24.i14 = phi i64 [ %44, %agxbsizeof.exit.i11 ], [ %49, %45 ]
  %50 = sub i64 %.0.i30.i13, %.0.i24.i14
  %51 = icmp ult i64 %50, %4
  br i1 %51, label %52, label %53

52:                                               ; preds = %agxblen.exit.i12
  tail call fastcc void @agxbmore(ptr noundef nonnull %41, i64 noundef %4)
  %.val.i25.pre.i17 = load i8, ptr %43, align 1, !tbaa !33
  br label %53

53:                                               ; preds = %52, %agxblen.exit.i12
  %.val.i25.i15 = phi i8 [ %.val.i25.pre.i17, %52 ], [ %.val.i.i9, %agxblen.exit.i12 ]
  %.not.i26.i16 = icmp eq i8 %.val.i25.i15, -1
  br i1 %.not.i26.i16, label %60, label %54

54:                                               ; preds = %53
  %55 = zext i8 %.val.i25.i15 to i64
  %56 = getelementptr inbounds nuw [31 x i8], ptr %41, i64 0, i64 %55
  tail call void @llvm.memcpy.p0.p0.i64(ptr nonnull align 1 %56, ptr readonly align 1 %1, i64 %4, i1 false)
  %57 = trunc i32 %2 to i8
  %58 = load i8, ptr %43, align 1, !tbaa !33
  %59 = add i8 %58, %57
  store i8 %59, ptr %43, align 1, !tbaa !33
  br label %agxbput_n.exit

60:                                               ; preds = %53
  %61 = getelementptr inbounds nuw i8, ptr %0, i64 40
  %62 = load i64, ptr %61, align 8, !tbaa !33
  %63 = load ptr, ptr %41, align 8, !tbaa !33
  %64 = getelementptr inbounds nuw i8, ptr %63, i64 %62
  tail call void @llvm.memcpy.p0.p0.i64(ptr align 1 %64, ptr readonly align 1 %1, i64 %4, i1 false)
  %65 = load i64, ptr %61, align 8, !tbaa !33
  %66 = add i64 %65, %4
  store i64 %66, ptr %61, align 8, !tbaa !33
  br label %agxbput_n.exit

agxbput_n.exit:                                   ; preds = %60, %54, %40, %33, %27, %13, %3
  ret void
}